target datalayout = "e-m:e-p270:32:32-p271:32:32-p272:64:64-i64:64-i128:128-f80:128-n8:16:32:64-S128"
target triple = "x86_64-pc-linux-gnu"

@_ZZN4absl13time_internal4cctz9time_zone4Impl7UTCImplEvE8utc_impl = internal global ptr null, align 8
@_ZGVZN4absl13time_internal4cctz9time_zone4Impl7UTCImplEvE8utc_impl = internal global i64 0, align 8
@_ZN4absl13time_internal4cctz9time_zone4ImplC1Ev = dso_local unnamed_addr alias void (ptr), ptr @_ZN4absl13time_internal4cctz9time_zone4ImplC2Ev

; Function Attrs: mustprogress uwtable
define dso_local noundef ptr @_ZN4absl13time_internal4cctz9time_zone4Impl7UTCImplEv() #0 align 2 personality ptr @__gxx_personality_v0 {
  %1 = alloca ptr, align 8
  %2 = alloca i32, align 4
  %3 = load atomic i8, ptr @_ZGVZN4absl13time_internal4cctz9time_zone4Impl7UTCImplEvE8utc_impl acquire, align 8
  %4 = icmp eq i8 %3, 0
  br i1 %4, label %5, label %12, !prof !4

5:                                                ; preds = %0
  %6 = call i32 @__cxa_guard_acquire(ptr @_ZGVZN4absl13time_internal4cctz9time_zone4Impl7UTCImplEvE8utc_impl) #8
  %7 = icmp ne i32 %6, 0
  br i1 %7, label %8, label %12

8:                                                ; preds = %5
  %9 = invoke noalias noundef nonnull ptr @_Znwm(i64 noundef 40) #16
          to label %10 unwind label %14

10:                                               ; preds = %8
  invoke void @_ZN4absl13time_internal4cctz9time_zone4ImplC1Ev(ptr noundef nonnull align 8 dereferenceable(40) %9)
          to label %11 unwind label %18

11:                                               ; preds = %10
  store ptr %9, ptr @_ZZN4absl13time_internal4cctz9time_zone4Impl7UTCImplEvE8utc_impl, align 8, !tbaa !5
  call void @__cxa_guard_release(ptr @_ZGVZN4absl13time_internal4cctz9time_zone4Impl7UTCImplEvE8utc_impl) #8
  br label %12

12:                                               ; preds = %11, %5, %0
  %13 = load ptr, ptr @_ZZN4absl13time_internal4cctz9time_zone4Impl7UTCImplEvE8utc_impl, align 8, !tbaa !5
  ret ptr %13

14:                                               ; preds = %8
  %15 = landingpad { ptr, i32 }
          cleanup
  %16 = extractvalue { ptr, i32 } %15, 0
  store ptr %16, ptr %1, align 8
  %17 = extractvalue { ptr, i32 } %15, 1
  store i32 %17, ptr %2, align 4
  br label %22

18:                                               ; preds = %10
  %19 = landingpad { ptr, i32 }
          cleanup
  %20 = extractvalue { ptr, i32 } %19, 0
  store ptr %20, ptr %1, align 8
  %21 = extractvalue { ptr, i32 } %19, 1
  store i32 %21, ptr %2, align 4
  call void @_ZdlPvm(ptr noundef %9, i64 noundef 40) #17
  br label %22

22:                                               ; preds = %18, %14
  call void @__cxa_guard_abort(ptr @_ZGVZN4absl13time_internal4cctz9time_zone4Impl7UTCImplEvE8utc_impl) #8
  br label %23

23:                                               ; preds = %22
  %24 = load ptr, ptr %1, align 8
  %25 = load i32, ptr %2, align 4
  %26 = insertvalue { ptr, i32 } poison, ptr %24, 0
  %27 = insertvalue { ptr, i32 } %26, i32 %25, 1
  resume { ptr, i32 } %27
}