; Function Attrs: mustprogress uwtable
define dso_local noundef ptr @_ZN4absl13time_internal4cctz9time_zone4Impl7UTCImplEv() local_unnamed_addr #0 align 2 personality ptr @__gxx_personality_v0 {
  %1 = load atomic i8, ptr @_ZGVZN4absl13time_internal4cctz9time_zone4Impl7UTCImplEvE8utc_impl acquire, align 8
  %2 = icmp eq i8 %1, 0
  br i1 %2, label %3, label %9, !prof !4

3:                                                ; preds = %0
  %4 = tail call i32 @__cxa_guard_acquire(ptr nonnull @_ZGVZN4absl13time_internal4cctz9time_zone4Impl7UTCImplEvE8utc_impl) #16
  %.not = icmp eq i32 %4, 0
  br i1 %.not, label %9, label %5

5:                                                ; preds = %3
  %6 = invoke noalias noundef nonnull dereferenceable(40) ptr @_Znwm(i64 noundef 40) #17
          to label %7 unwind label %11

7:                                                ; preds = %5
  invoke void @_ZN4absl13time_internal4cctz9time_zone4ImplC2Ev(ptr noundef nonnull align 8 dereferenceable(40) %6)
          to label %8 unwind label %13

8:                                                ; preds = %7
  store ptr %6, ptr @_ZZN4absl13time_internal4cctz9time_zone4Impl7UTCImplEvE8utc_impl, align 8, !tbaa !5
  tail call void @__cxa_guard_release(ptr nonnull @_ZGVZN4absl13time_internal4cctz9time_zone4Impl7UTCImplEvE8utc_impl) #16
  br label %9

9:                                                ; preds = %8, %3, %0
  %10 = load ptr, ptr @_ZZN4absl13time_internal4cctz9time_zone4Impl7UTCImplEvE8utc_impl, align 8, !tbaa !5
  ret ptr %10

11:                                               ; preds = %5
  %12 = landingpad { ptr, i32 }
          cleanup
  br label %15

13:                                               ; preds = %7
  %14 = landingpad { ptr, i32 }
          cleanup
  tail call void @_ZdlPvm(ptr noundef nonnull %6, i64 noundef 40) #18
  br label %15

15:                                               ; preds = %13, %11
  %.pn = phi { ptr, i32 } [ %14, %13 ], [ %12, %11 ]
  tail call void @__cxa_guard_abort(ptr nonnull @_ZGVZN4absl13time_internal4cctz9time_zone4Impl7UTCImplEvE8utc_impl) #16
  resume { ptr, i32 } %.pn
}